target datalayout = "e-m:e-p270:32:32-p271:32:32-p272:64:64-i64:64-i128:128-f80:128-n8:16:32:64-S128"
target triple = "x86_64-pc-linux-gnu"

%struct.timeval = type { i64, i64 }
%struct._logentry = type { i32, i8, i16, i64, %struct.timeval, i32, [0 x %union.anon] }
%union.anon = type { i8 }
%struct.logentry_item_get = type { i8, i8, i8, i32, i32, [0 x i8] }

@__const._logger_parse_ige.was_found_map = private unnamed_addr constant [4 x ptr] [ptr @.str.25, ptr @.str.26, ptr @.str.27, ptr @.str.28], align 16
@.str.29 = private unnamed_addr constant [76 x i8] c"ts=%lld.%d gid=%llu type=item_get key=%s status=%s clsid=%u cfd=%d size=%d\0A\00", align 1

; Function Attrs: nounwind uwtable
define internal i32 @_logger_parse_ige(ptr noundef %0, ptr noundef %1) #0 {
  %3 = alloca ptr, align 8
  %4 = alloca ptr, align 8
  %5 = alloca i32, align 4
  %6 = alloca ptr, align 8
  %7 = alloca [751 x i8], align 16
  %8 = alloca [4 x ptr], align 16
  store ptr %0, ptr %3, align 8, !tbaa !33
  store ptr %1, ptr %4, align 8, !tbaa !63
  call void @llvm.lifetime.start.p0(i64 4, ptr %5) #11
  call void @llvm.lifetime.start.p0(i64 8, ptr %6) #11
  %9 = load ptr, ptr %3, align 8, !tbaa !33
  %10 = getelementptr inbounds nuw %struct._logentry, ptr %9, i32 0, i32 6
  %11 = getelementptr inbounds [0 x %union.anon], ptr %10, i64 0, i64 0
  store ptr %11, ptr %6, align 8, !tbaa !116
  call void @llvm.lifetime.start.p0(i64 751, ptr %7) #11
  call void @llvm.lifetime.start.p0(i64 32, ptr %8) #11
  call void @llvm.memcpy.p0.p0.i64(ptr align 16 %8, ptr align 16 @__const._logger_parse_ige.was_found_map, i64 32, i1 false)
  %12 = load ptr, ptr %6, align 8, !tbaa !116
  %13 = getelementptr inbounds nuw %struct.logentry_item_get, ptr %12, i32 0, i32 5
  %14 = getelementptr inbounds [0 x i8], ptr %13, i64 0, i64 0
  %15 = getelementptr inbounds [751 x i8], ptr %7, i64 0, i64 0
  %16 = load ptr, ptr %6, align 8, !tbaa !116
  %17 = getelementptr inbounds nuw %struct.logentry_item_get, ptr %16, i32 0, i32 1
  %18 = load i8, ptr %17, align 1, !tbaa !36
  %19 = zext i8 %18 to i64
  %20 = call zeroext i1 @uriencode(ptr noundef %14, ptr noundef %15, i64 noundef %19, i64 noundef 751)
  %21 = load ptr, ptr %4, align 8, !tbaa !63
  %22 = load ptr, ptr %3, align 8, !tbaa !33
  %23 = getelementptr inbounds nuw %struct._logentry, ptr %22, i32 0, i32 4
  %24 = getelementptr inbounds nuw %struct.timeval, ptr %23, i32 0, i32 0
  %25 = load i64, ptr %24, align 8, !tbaa !108
  %26 = load ptr, ptr %3, align 8, !tbaa !33
  %27 = getelementptr inbounds nuw %struct._logentry, ptr %26, i32 0, i32 4
  %28 = getelementptr inbounds nuw %struct.timeval, ptr %27, i32 0, i32 1
  %29 = load i64, ptr %28, align 8, !tbaa !109
  %30 = trunc i64 %29 to i32
  %31 = load ptr, ptr %3, align 8, !tbaa !33
  %32 = getelementptr inbounds nuw %struct._logentry, ptr %31, i32 0, i32 3
  %33 = load i64, ptr %32, align 8, !tbaa !4
  %34 = getelementptr inbounds [751 x i8], ptr %7, i64 0, i64 0
  %35 = load ptr, ptr %6, align 8, !tbaa !116
  %36 = getelementptr inbounds nuw %struct.logentry_item_get, ptr %35, i32 0, i32 0
  %37 = load i8, ptr %36, align 4, !tbaa !36
  %38 = zext i8 %37 to i64
  %39 = getelementptr inbounds nuw [4 x ptr], ptr %8, i64 0, i64 %38
  %40 = load ptr, ptr %39, align 8, !tbaa !63
  %41 = load ptr, ptr %6, align 8, !tbaa !116
  %42 = getelementptr inbounds nuw %struct.logentry_item_get, ptr %41, i32 0, i32 2
  %43 = load i8, ptr %42, align 2, !tbaa !36
  %44 = zext i8 %43 to i32
  %45 = load ptr, ptr %6, align 8, !tbaa !116
  %46 = getelementptr inbounds nuw %struct.logentry_item_get, ptr %45, i32 0, i32 4
  %47 = load i32, ptr %46, align 4, !tbaa !11
  %48 = load ptr, ptr %6, align 8, !tbaa !116
  %49 = getelementptr inbounds nuw %struct.logentry_item_get, ptr %48, i32 0, i32 3
  %50 = load i32, ptr %49, align 4, !tbaa !11
  %51 = icmp sgt i32 %50, 0
  br i1 %51, label %52, label %57

52:                                               ; preds = %2
  %53 = load ptr, ptr %6, align 8, !tbaa !116
  %54 = getelementptr inbounds nuw %struct.logentry_item_get, ptr %53, i32 0, i32 3
  %55 = load i32, ptr %54, align 4, !tbaa !11
  %56 = sub nsw i32 %55, 2
  br label %58

57:                                               ; preds = %2
  br label %58

58:                                               ; preds = %57, %52
  %59 = phi i32 [ %56, %52 ], [ 0, %57 ]
  %60 = call i32 (ptr, i64, ptr, ...) @snprintf(ptr noundef %21, i64 noundef 4096, ptr noundef @.str.29, i64 noundef %25, i32 noundef %30, i64 noundef %33, ptr noundef %34, ptr noundef %40, i32 noundef %44, i32 noundef %47, i32 noundef %59) #11
  store i32 %60, ptr %5, align 4, !tbaa !11
  %61 = load i32, ptr %5, align 4, !tbaa !11
  call void @llvm.lifetime.end.p0(i64 32, ptr %8) #11
  call void @llvm.lifetime.end.p0(i64 751, ptr %7) #11
  call void @llvm.lifetime.end.p0(i64 8, ptr %6) #11
  call void @llvm.lifetime.end.p0(i64 4, ptr %5) #11
  ret i32 %61
}