; Function Attrs: nounwind uwtable
define internal noundef i32 @_logger_parse_ige(ptr noundef %0, ptr noundef writeonly captures(none) %1) #1 {
  %3 = alloca [751 x i8], align 16
  %4 = getelementptr inbounds nuw i8, ptr %0, i64 36
  call void @llvm.lifetime.start.p0(i64 751, ptr nonnull %3) #18
  %5 = getelementptr inbounds nuw i8, ptr %0, i64 48
  %6 = getelementptr inbounds nuw i8, ptr %0, i64 37
  %7 = load i8, ptr %6, align 1, !tbaa !31
  %8 = zext i8 %7 to i64
  %9 = call zeroext i1 @uriencode(ptr noundef nonnull %5, ptr noundef nonnull %3, i64 noundef %8, i64 noundef 751) #18
  %10 = getelementptr inbounds nuw i8, ptr %0, i64 16
  %11 = load i64, ptr %10, align 8, !tbaa !91
  %12 = getelementptr inbounds nuw i8, ptr %0, i64 24
  %13 = load i64, ptr %12, align 8, !tbaa !92
  %14 = getelementptr inbounds nuw i8, ptr %0, i64 8
  %15 = load i64, ptr %14, align 8, !tbaa !13
  %16 = load i8, ptr %4, align 4, !tbaa !31
  %17 = zext i8 %16 to i64
  %18 = getelementptr inbounds nuw [4 x ptr], ptr @__const._logger_parse_ige.was_found_map, i64 0, i64 %17
  %19 = load ptr, ptr %18, align 8, !tbaa !95
  %20 = getelementptr inbounds nuw i8, ptr %0, i64 38
  %21 = load i8, ptr %20, align 2, !tbaa !31
  %22 = getelementptr inbounds nuw i8, ptr %0, i64 44
  %23 = load i32, ptr %22, align 4, !tbaa !9
  %24 = getelementptr inbounds nuw i8, ptr %0, i64 40
  %25 = load i32, ptr %24, align 4, !tbaa !9
  %26 = icmp sgt i32 %25, 0
  %27 = add nsw i32 %25, -2
  %spec.select = select i1 %26, i32 %27, i32 0
  %28 = zext i8 %21 to i32
  %29 = trunc i64 %13 to i32
  %30 = call i32 (ptr, i64, ptr, ...) @snprintf(ptr noundef nonnull dereferenceable(1) %1, i64 noundef 4096, ptr noundef nonnull @.str.29, i64 noundef %11, i32 noundef %29, i64 noundef %15, ptr noundef nonnull %3, ptr noundef %19, i32 noundef %28, i32 noundef %23, i32 noundef %spec.select) #18
  call void @llvm.lifetime.end.p0(i64 751, ptr nonnull %3) #18
  ret i32 %30
}